target datalayout = "e-m:e-p270:32:32-p271:32:32-p272:64:64-i64:64-i128:128-f80:128-n8:16:32:64-S128"
target triple = "x86_64-pc-linux-gnu"

%struct.radix_process_st = type { i64, i64, i64, ptr, ptr, ptr, %struct.OSSL_TIME, ptr, i32, i32 }
%struct.OSSL_TIME = type { i64 }
%struct.terp_config_st = type { ptr, ptr, ptr, ptr, ptr, %struct.OSSL_TIME }
%struct.terp_st = type { %struct.terp_config_st, ptr, ptr, %struct.srdr_st, ptr, ptr, ptr, ptr, %struct.func_ctx_st, i64, i32, %struct.OSSL_TIME, %struct.OSSL_TIME }
%struct.srdr_st = type { ptr, ptr, ptr, ptr }
%struct.func_ctx_st = type { ptr, i32, i32 }
%struct.radix_thread_st = type { ptr, ptr, ptr, i64, i64, [8 x ptr], [8 x ptr], ptr, ptr, ptr, i32, i32, i64 }

@.str.42 = private unnamed_addr constant [29 x i8] c"../openssl/test/radix/terp.c\00", align 1
@radix_process = internal global %struct.radix_process_st zeroinitializer, align 8
@.str.55 = private unnamed_addr constant [30 x i8] c"terp->stk_end - terp->stk_cur\00", align 1
@.str.56 = private unnamed_addr constant [8 x i8] c"buf_len\00", align 1
@.str.74 = private unnamed_addr constant [38 x i8] c"../openssl/test/radix/quic_bindings.c\00", align 1
@.str.135 = private unnamed_addr constant [68 x i8] c"TERP_stk_pop((fctx->terp), &((script_info)), sizeof((script_info)))\00", align 1
@.str.136 = private unnamed_addr constant [12 x i8] c"script_info\00", align 1
@.str.137 = private unnamed_addr constant [44 x i8] c"child_rt = RADIX_THREAD_new(&radix_process)\00", align 1
@.str.138 = private unnamed_addr constant [43 x i8] c"child_rt->debug_bio = BIO_new(BIO_s_mem())\00", align 1
@.str.139 = private unnamed_addr constant [85 x i8] c"child_rt->t = ossl_crypto_thread_native_start(RADIX_THREAD_worker_main, child_rt, 1)\00", align 1

; Function Attrs: nounwind uwtable
define internal void @RADIX_THREAD_free(ptr noundef %0) #0 {
  %2 = alloca ptr, align 8
  store ptr %0, ptr %2, align 8, !tbaa !20
  %3 = load ptr, ptr %2, align 8, !tbaa !20
  %4 = icmp eq ptr %3, null
  br i1 %4, label %5, label %6

5:                                                ; preds = %1
  br label %16

6:                                                ; preds = %1
  %7 = load ptr, ptr %2, align 8, !tbaa !20
  %8 = getelementptr inbounds nuw %struct.radix_thread_st, ptr %7, i32 0, i32 8
  %9 = load ptr, ptr %8, align 8, !tbaa !93
  call void @BIO_free_all(ptr noundef %9)
  %10 = load ptr, ptr %2, align 8, !tbaa !20
  %11 = getelementptr inbounds nuw %struct.radix_thread_st, ptr %10, i32 0, i32 2
  %12 = load ptr, ptr %11, align 8, !tbaa !70
  call void @CRYPTO_free(ptr noundef %12, ptr noundef @.str.74, i32 noundef 526)
  %13 = load ptr, ptr %2, align 8, !tbaa !20
  %14 = getelementptr inbounds nuw %struct.radix_thread_st, ptr %13, i32 0, i32 9
  call void @ossl_crypto_mutex_free(ptr noundef %14)
  %15 = load ptr, ptr %2, align 8, !tbaa !20
  call void @CRYPTO_free(ptr noundef %15, ptr noundef @.str.74, i32 noundef 528)
  br label %16

16:                                               ; preds = %6, %5
  ret void
}

; Function Attrs: inlinehint nounwind uwtable
define internal i32 @TERP_stk_pop(ptr noundef %0, ptr noundef %1, i64 noundef %2) #5 {
  %4 = alloca i32, align 4
  %5 = alloca ptr, align 8
  %6 = alloca ptr, align 8
  %7 = alloca i64, align 8
  store ptr %0, ptr %5, align 8, !tbaa !75
  store ptr %1, ptr %6, align 8, !tbaa !41
  store i64 %2, ptr %7, align 8, !tbaa !19
  %8 = load ptr, ptr %5, align 8, !tbaa !75
  %9 = getelementptr inbounds nuw %struct.terp_st, ptr %8, i32 0, i32 6
  %10 = load ptr, ptr %9, align 8, !tbaa !26
  %11 = load ptr, ptr %5, align 8, !tbaa !75
  %12 = getelementptr inbounds nuw %struct.terp_st, ptr %11, i32 0, i32 5
  %13 = load ptr, ptr %12, align 8, !tbaa !32
  %14 = ptrtoint ptr %10 to i64
  %15 = ptrtoint ptr %13 to i64
  %16 = sub i64 %14, %15
  %17 = load i64, ptr %7, align 8, !tbaa !19
  %18 = call i32 @test_size_t_ge(ptr noundef @.str.42, i32 noundef 629, ptr noundef @.str.55, ptr noundef @.str.56, i64 noundef %16, i64 noundef %17)
  %19 = icmp ne i32 %18, 0
  br i1 %19, label %21, label %20

20:                                               ; preds = %3
  store i32 0, ptr %4, align 4
  br label %32

21:                                               ; preds = %3
  %22 = load ptr, ptr %6, align 8, !tbaa !41
  %23 = load ptr, ptr %5, align 8, !tbaa !75
  %24 = getelementptr inbounds nuw %struct.terp_st, ptr %23, i32 0, i32 5
  %25 = load ptr, ptr %24, align 8, !tbaa !32
  %26 = load i64, ptr %7, align 8, !tbaa !19
  call void @llvm.memcpy.p0.p0.i64(ptr align 1 %22, ptr align 1 %25, i64 %26, i1 false)
  %27 = load i64, ptr %7, align 8, !tbaa !19
  %28 = load ptr, ptr %5, align 8, !tbaa !75
  %29 = getelementptr inbounds nuw %struct.terp_st, ptr %28, i32 0, i32 5
  %30 = load ptr, ptr %29, align 8, !tbaa !32
  %31 = getelementptr inbounds nuw i8, ptr %30, i64 %27
  store ptr %31, ptr %29, align 8, !tbaa !32
  store i32 1, ptr %4, align 4
  br label %32

32:                                               ; preds = %21, %20
  %33 = load i32, ptr %4, align 4
  ret i32 %33
}

; Function Attrs: nounwind uwtable
define internal i32 @hf_spawn_thread(ptr noundef %0) #0 {
  %2 = alloca i32, align 4
  %3 = alloca ptr, align 8
  %4 = alloca i32, align 4
  %5 = alloca ptr, align 8
  %6 = alloca ptr, align 8
  %7 = alloca i32, align 4
  store ptr %0, ptr %3, align 8, !tbaa !42
  call void @llvm.lifetime.start.p0(i64 4, ptr %4) #9
  store i32 0, ptr %4, align 4, !tbaa !9
  call void @llvm.lifetime.start.p0(i64 8, ptr %5) #9
  store ptr null, ptr %5, align 8, !tbaa !20
  call void @llvm.lifetime.start.p0(i64 8, ptr %6) #9
  store ptr null, ptr %6, align 8, !tbaa !11
  br label %8

8:                                                ; preds = %1
  call void @llvm.memset.p0.i64(ptr align 8 %6, i8 0, i64 8, i1 false)
  %9 = load ptr, ptr %3, align 8, !tbaa !42
  %10 = getelementptr inbounds nuw %struct.func_ctx_st, ptr %9, i32 0, i32 0
  %11 = load ptr, ptr %10, align 8, !tbaa !46
  %12 = call i32 @TERP_stk_pop(ptr noundef %11, ptr noundef %6, i64 noundef 8)
  %13 = icmp ne i32 %12, 0
  %14 = zext i1 %13 to i32
  %15 = call i32 @test_true(ptr noundef @.str.74, i32 noundef 788, ptr noundef @.str.135, i32 noundef %14)
  %16 = icmp ne i32 %15, 0
  br i1 %16, label %18, label %17

17:                                               ; preds = %8
  br label %59

18:                                               ; preds = %8
  br label %19

19:                                               ; preds = %18
  br label %20

20:                                               ; preds = %19
  %21 = load ptr, ptr %6, align 8, !tbaa !11
  %22 = call i32 @test_ptr(ptr noundef @.str.74, i32 noundef 789, ptr noundef @.str.136, ptr noundef %21)
  %23 = icmp ne i32 %22, 0
  br i1 %23, label %25, label %24

24:                                               ; preds = %20
  br label %59

25:                                               ; preds = %20
  %26 = call ptr @RADIX_THREAD_new(ptr noundef @radix_process)
  store ptr %26, ptr %5, align 8, !tbaa !20
  %27 = call i32 @test_ptr(ptr noundef @.str.74, i32 noundef 796, ptr noundef @.str.137, ptr noundef %26)
  %28 = icmp ne i32 %27, 0
  br i1 %28, label %30, label %29

29:                                               ; preds = %25
  store i32 0, ptr %2, align 4
  store i32 1, ptr %7, align 4
  br label %66

30:                                               ; preds = %25
  %31 = call ptr @BIO_s_mem()
  %32 = call ptr @BIO_new(ptr noundef %31)
  %33 = load ptr, ptr %5, align 8, !tbaa !20
  %34 = getelementptr inbounds nuw %struct.radix_thread_st, ptr %33, i32 0, i32 8
  store ptr %32, ptr %34, align 8, !tbaa !93
  %35 = call i32 @test_ptr(ptr noundef @.str.74, i32 noundef 799, ptr noundef @.str.138, ptr noundef %32)
  %36 = icmp ne i32 %35, 0
  br i1 %36, label %38, label %37

37:                                               ; preds = %30
  br label %59

38:                                               ; preds = %30
  %39 = load ptr, ptr %5, align 8, !tbaa !20
  %40 = getelementptr inbounds nuw %struct.radix_thread_st, ptr %39, i32 0, i32 9
  %41 = load ptr, ptr %40, align 8, !tbaa !94
  call void @ossl_crypto_mutex_lock(ptr noundef %41)
  %42 = load ptr, ptr %6, align 8, !tbaa !11
  %43 = load ptr, ptr %5, align 8, !tbaa !20
  %44 = getelementptr inbounds nuw %struct.radix_thread_st, ptr %43, i32 0, i32 7
  store ptr %42, ptr %44, align 8, !tbaa !95
  %45 = load ptr, ptr %5, align 8, !tbaa !20
  %46 = call ptr @ossl_crypto_thread_native_start(ptr noundef @RADIX_THREAD_worker_main, ptr noundef %45, i32 noundef 1)
  %47 = load ptr, ptr %5, align 8, !tbaa !20
  %48 = getelementptr inbounds nuw %struct.radix_thread_st, ptr %47, i32 0, i32 1
  store ptr %46, ptr %48, align 8, !tbaa !96
  %49 = call i32 @test_ptr(ptr noundef @.str.74, i32 noundef 806, ptr noundef @.str.139, ptr noundef %46)
  %50 = icmp ne i32 %49, 0
  br i1 %50, label %55, label %51

51:                                               ; preds = %38
  %52 = load ptr, ptr %5, align 8, !tbaa !20
  %53 = getelementptr inbounds nuw %struct.radix_thread_st, ptr %52, i32 0, i32 9
  %54 = load ptr, ptr %53, align 8, !tbaa !94
  call void @ossl_crypto_mutex_unlock(ptr noundef %54)
  br label %59

55:                                               ; preds = %38
  %56 = load ptr, ptr %5, align 8, !tbaa !20
  %57 = getelementptr inbounds nuw %struct.radix_thread_st, ptr %56, i32 0, i32 9
  %58 = load ptr, ptr %57, align 8, !tbaa !94
  call void @ossl_crypto_mutex_unlock(ptr noundef %58)
  store i32 1, ptr %4, align 4, !tbaa !9
  br label %59

59:                                               ; preds = %55, %51, %37, %24, %17
  %60 = load i32, ptr %4, align 4, !tbaa !9
  %61 = icmp ne i32 %60, 0
  br i1 %61, label %64, label %62

62:                                               ; preds = %59
  %63 = load ptr, ptr %5, align 8, !tbaa !20
  call void @RADIX_THREAD_free(ptr noundef %63)
  br label %64

64:                                               ; preds = %62, %59
  %65 = load i32, ptr %4, align 4, !tbaa !9
  store i32 %65, ptr %2, align 4
  store i32 1, ptr %7, align 4
  br label %66

66:                                               ; preds = %64, %29
  call void @llvm.lifetime.end.p0(i64 8, ptr %6) #9
  call void @llvm.lifetime.end.p0(i64 8, ptr %5) #9
  call void @llvm.lifetime.end.p0(i64 4, ptr %4) #9
  %67 = load i32, ptr %2, align 4
  ret i32 %67
}