; Function Attrs: nounwind uwtable
define internal range(i32 0, 2) i32 @hf_spawn_thread(ptr noundef readonly captures(none) %0) #1 {
  %2 = load ptr, ptr %0, align 8, !tbaa !107
  %3 = getelementptr inbounds nuw i8, ptr %2, i64 112
  %4 = load ptr, ptr %3, align 8, !tbaa !100
  %5 = getelementptr inbounds nuw i8, ptr %2, i64 104
  %6 = load ptr, ptr %5, align 8, !tbaa !95
  %7 = ptrtoint ptr %4 to i64
  %8 = ptrtoint ptr %6 to i64
  %9 = sub i64 %7, %8
  %10 = tail call i32 @test_size_t_ge(ptr noundef nonnull @.str.42, i32 noundef 629, ptr noundef nonnull @.str.55, ptr noundef nonnull @.str.56, i64 noundef %9, i64 noundef 8) #12
  %.not.i = icmp eq i32 %10, 0
  br i1 %.not.i, label %TERP_stk_pop.exit, label %11

11:                                               ; preds = %1
  %12 = load ptr, ptr %5, align 8, !tbaa !95
  %13 = load i64, ptr %12, align 1
  %14 = inttoptr i64 %13 to ptr
  %15 = getelementptr inbounds nuw i8, ptr %12, i64 8
  store ptr %15, ptr %5, align 8, !tbaa !95
  br label %TERP_stk_pop.exit

TERP_stk_pop.exit:                                ; preds = %1, %11
  %.019 = phi ptr [ null, %1 ], [ %14, %11 ]
  %.0.i = phi i32 [ 0, %1 ], [ 1, %11 ]
  %16 = tail call i32 @test_true(ptr noundef nonnull @.str.74, i32 noundef 788, ptr noundef nonnull @.str.135, i32 noundef %.0.i) #12
  %.not = icmp eq i32 %16, 0
  br i1 %.not, label %RADIX_THREAD_free.exit, label %17

17:                                               ; preds = %TERP_stk_pop.exit
  %18 = tail call i32 @test_ptr(ptr noundef nonnull @.str.74, i32 noundef 789, ptr noundef nonnull @.str.136, ptr noundef %.019) #12
  %.not13 = icmp eq i32 %18, 0
  br i1 %.not13, label %RADIX_THREAD_free.exit, label %19

19:                                               ; preds = %17
  %20 = tail call fastcc ptr @RADIX_THREAD_new()
  %21 = tail call i32 @test_ptr(ptr noundef nonnull @.str.74, i32 noundef 796, ptr noundef nonnull @.str.137, ptr noundef %20) #12
  %.not14 = icmp eq i32 %21, 0
  br i1 %.not14, label %RADIX_THREAD_free.exit, label %22

22:                                               ; preds = %19
  %23 = tail call ptr @BIO_s_mem() #12
  %24 = tail call ptr @BIO_new(ptr noundef %23) #12
  %25 = getelementptr inbounds nuw i8, ptr %20, i64 176
  store ptr %24, ptr %25, align 8, !tbaa !42
  %26 = tail call i32 @test_ptr(ptr noundef nonnull @.str.74, i32 noundef 799, ptr noundef nonnull @.str.138, ptr noundef %24) #12
  %.not15 = icmp eq i32 %26, 0
  br i1 %.not15, label %35, label %27

27:                                               ; preds = %22
  %28 = getelementptr inbounds nuw i8, ptr %20, i64 184
  %29 = load ptr, ptr %28, align 8, !tbaa !38
  tail call void @ossl_crypto_mutex_lock(ptr noundef %29) #12
  %30 = getelementptr inbounds nuw i8, ptr %20, i64 168
  store ptr %.019, ptr %30, align 8, !tbaa !114
  %31 = tail call ptr @ossl_crypto_thread_native_start(ptr noundef nonnull @RADIX_THREAD_worker_main, ptr noundef nonnull %20, i32 noundef 1) #12
  %32 = getelementptr inbounds nuw i8, ptr %20, i64 8
  store ptr %31, ptr %32, align 8, !tbaa !29
  %33 = tail call i32 @test_ptr(ptr noundef nonnull @.str.74, i32 noundef 806, ptr noundef nonnull @.str.139, ptr noundef %31) #12
  %.not16 = icmp eq i32 %33, 0
  %34 = load ptr, ptr %28, align 8, !tbaa !38
  tail call void @ossl_crypto_mutex_unlock(ptr noundef %34) #12
  br i1 %.not16, label %35, label %RADIX_THREAD_free.exit

35:                                               ; preds = %27, %22
  %36 = load ptr, ptr %25, align 8, !tbaa !42
  tail call void @BIO_free_all(ptr noundef %36) #12
  %37 = getelementptr inbounds nuw i8, ptr %20, i64 16
  %38 = load ptr, ptr %37, align 8, !tbaa !53
  tail call void @CRYPTO_free(ptr noundef %38, ptr noundef nonnull @.str.74, i32 noundef 526) #12
  %39 = getelementptr inbounds nuw i8, ptr %20, i64 184
  tail call void @ossl_crypto_mutex_free(ptr noundef nonnull %39) #12
  tail call void @CRYPTO_free(ptr noundef nonnull %20, ptr noundef nonnull @.str.74, i32 noundef 528) #12
  br label %RADIX_THREAD_free.exit

RADIX_THREAD_free.exit:                           ; preds = %27, %17, %TERP_stk_pop.exit, %35, %19
  %.012 = phi i32 [ 0, %19 ], [ 0, %35 ], [ 0, %TERP_stk_pop.exit ], [ 0, %17 ], [ 1, %27 ]
  ret i32 %.012
}